; Function Attrs: nounwind uwtable
define range(i32 -30, 1) i32 @CVodeQuadReInit(ptr noundef captures(address_is_null) %0, ptr noundef %1) local_unnamed_addr #0 {
  %3 = icmp eq ptr %0, null
  br i1 %3, label %4, label %5

4:                                                ; preds = %2
  tail call void (ptr, i32, i32, ptr, ptr, ptr, ...) @cvProcessError(ptr noundef null, i32 noundef -21, i32 noundef 1222, ptr noundef nonnull @__func__.CVodeQuadReInit, ptr noundef nonnull @.str, ptr noundef nonnull @.str.4)
  br label %16

5:                                                ; preds = %2
  %6 = getelementptr inbounds nuw i8, ptr %0, i64 2132
  %7 = load i32, ptr %6, align 4, !tbaa !149
  %8 = icmp eq i32 %7, 0
  br i1 %8, label %9, label %10

9:                                                ; preds = %5
  tail call void (ptr, i32, i32, ptr, ptr, ptr, ...) @cvProcessError(ptr noundef nonnull %0, i32 noundef -30, i32 noundef 1230, ptr noundef nonnull @__func__.CVodeQuadReInit, ptr noundef nonnull @.str, ptr noundef nonnull @.str.14)
  br label %16

10:                                               ; preds = %5
  %11 = getelementptr inbounds nuw i8, ptr %0, i64 512
  %12 = load ptr, ptr %11, align 8, !tbaa !65
  tail call void @N_VScale(double noundef 1.000000e+00, ptr noundef %1, ptr noundef %12) #13
  %13 = getelementptr inbounds nuw i8, ptr %0, i64 1592
  store i64 0, ptr %13, align 8, !tbaa !146
  %14 = getelementptr inbounds nuw i8, ptr %0, i64 1712
  store i64 0, ptr %14, align 8, !tbaa !147
  %15 = getelementptr inbounds nuw i8, ptr %0, i64 92
  store i32 1, ptr %15, align 4, !tbaa !148
  br label %16

16:                                               ; preds = %10, %9, %4
  %.0 = phi i32 [ -21, %4 ], [ -30, %9 ], [ 0, %10 ]
  ret i32 %.0
}